(isrc.inputgen
Input
p0
(dp1
S'elecs'
p2
(lp3
(isrc.inputgen
Elec
p4
(dp5
S'istrng'
p6
I0
sS'cglen'
p7
(lp8
F77.3143
aF90.39069999999998
aF67.74534
asS'bcfl'
p9
S'sdh'
p10
sS'lpbe'
p11
I1
sS'srfm'
p12
S'smol'
p13
sS'npbe'
p14
I0
sS'glen'
p15
g8
sS'label'
p16
S''
p17
sS'write'
p18
(lp19
(lp20
S'pot'
p21
aS'dx'
p22
aS'tmp/1lfu/1lfu'
p23
aasS'calcenergy'
p24
S'total'
p25
sS'pdime'
p26
(lp27
I2
aI2
aF1.0
asS'method'
p28
S'mg-auto'
p29
sS'sdens'
p30
F10.0
sS'srad'
p31
F1.4
sS'gcent'
p32
S'mol 1'
p33
sS'swin'
p34
F0.3
sS'fgcent'
p35
g33
sS'dime'
p36
(lp37
I129
aI161
aI129
asS'cgcent'
p38
g33
sS'ion'
p39
(lp40
(lp41
I-1
aF1.815
aa(lp42
I1
aF1.875
aasS'ofrac'
p43
F0.1
sS'mol'
p44
I1
sS'calcforce'
p45
S'no'
p46
sS'asyncflag'
p47
I0
sS'temp'
p48
F298.15
sS'gamma'
p49
F0.105
sS'nlev'
p50
I4
sS'async'
p51
I0
sS'sdie'
p52
F78.54
sS'chgm'
p53
S'spl2'
p54
sS'pdie'
p55
F2.0
sS'fglen'
p56
(lp57
F65.479
aF73.17099999999999
aF59.8502
asbag17
asS'prints'
p58
(lp59
S'print elecEnergy 1 end'
p60
asS'pqrpath'
p61
g23
sg47
I0
sS'pqrname'
p62
S'1lfu'
p63
sb.